target datalayout = "e-m:e-p270:32:32-p271:32:32-p272:64:64-i64:64-i128:128-f80:128-n8:16:32:64-S128"
target triple = "x86_64-pc-linux-gnu"

@reftable_malloc_ptr = internal global ptr null, align 8

; Function Attrs: nounwind uwtable
define dso_local ptr @reftable_malloc(i64 noundef %0) #0 {
  %2 = alloca ptr, align 8
  %3 = alloca i64, align 8
  store i64 %0, ptr %3, align 8, !tbaa !4
  %4 = load i64, ptr %3, align 8, !tbaa !4
  %5 = icmp ne i64 %4, 0
  br i1 %5, label %7, label %6

6:                                                ; preds = %1
  store ptr null, ptr %2, align 8
  br label %17

7:                                                ; preds = %1
  %8 = load ptr, ptr @reftable_malloc_ptr, align 8, !tbaa !8
  %9 = icmp ne ptr %8, null
  br i1 %9, label %10, label %14

10:                                               ; preds = %7
  %11 = load ptr, ptr @reftable_malloc_ptr, align 8, !tbaa !8
  %12 = load i64, ptr %3, align 8, !tbaa !4
  %13 = call ptr %11(i64 noundef %12)
  store ptr %13, ptr %2, align 8
  br label %17

14:                                               ; preds = %7
  %15 = load i64, ptr %3, align 8, !tbaa !4
  %16 = call noalias ptr @malloc(i64 noundef %15) #11
  store ptr %16, ptr %2, align 8
  br label %17

17:                                               ; preds = %14, %10, %6
  %18 = load ptr, ptr %2, align 8
  ret ptr %18
}