; Function Attrs: nounwind uwtable
define dso_local ptr @reftable_malloc(i64 noundef %0) local_unnamed_addr #0 {
  %.not = icmp eq i64 %0, 0
  br i1 %.not, label %8, label %2

2:                                                ; preds = %1
  %3 = load ptr, ptr @reftable_malloc_ptr, align 8, !tbaa !4
  %.not5 = icmp eq ptr %3, null
  br i1 %.not5, label %6, label %4

4:                                                ; preds = %2
  %5 = tail call ptr %3(i64 noundef %0) #20
  br label %8

6:                                                ; preds = %2
  %7 = tail call noalias ptr @malloc(i64 noundef %0) #21
  br label %8

8:                                                ; preds = %1, %6, %4
  %.0 = phi ptr [ %5, %4 ], [ %7, %6 ], [ null, %1 ]
  ret ptr %.0
}